target datalayout = "e-m:e-p270:32:32-p271:32:32-p272:64:64-i64:64-i128:128-f80:128-n8:16:32:64-S128"
target triple = "x86_64-pc-linux-gnu"

%struct.expert_field = type { i32, i32 }

@hf_pfcp_mpquic_address_information_type = internal global i32 0, align 4
@hf_pfcp_mpquic_address_information_port = internal global i32 0, align 4
@hf_pfcp_mpquic_address_information_address_ipv4 = internal global i32 0, align 4
@hf_pfcp_mpquic_address_information_address_ipv6 = internal global i32 0, align 4
@ei_pfcp_ie_data_not_decoded = internal global %struct.expert_field zeroinitializer, align 4
@dissect_pfcp_mpquic_address_information.pfcp_mpquic_address_information_flags = internal constant [4 x ptr] [ptr @hf_pfcp_spare_b7_b1, ptr @hf_pfcp_mpquic_address_information_flags_b1_v6, ptr @hf_pfcp_mpquic_address_information_flags_b0_v4, ptr null], align 16

; Function Attrs: null_pointer_is_valid sspstrong uwtable
define internal void @dissect_pfcp_mpquic_address_information(ptr noundef %0, ptr noundef %1, ptr noundef %2, ptr noundef %3, i16 noundef zeroext %4, i8 noundef zeroext %5, ptr noundef %6) #0 {
  %8 = alloca ptr, align 8
  %9 = alloca ptr, align 8
  %10 = alloca ptr, align 8
  %11 = alloca ptr, align 8
  %12 = alloca i16, align 2
  %13 = alloca i8, align 1
  %14 = alloca ptr, align 8
  %15 = alloca i32, align 4
  %16 = alloca i64, align 8
  store ptr %0, ptr %8, align 8
  store ptr %1, ptr %9, align 8
  store ptr %2, ptr %10, align 8
  store ptr %3, ptr %11, align 8
  store i16 %4, ptr %12, align 2
  store i8 %5, ptr %13, align 1
  store ptr %6, ptr %14, align 8
  call void @llvm.lifetime.start.p0(i64 4, ptr %15) #13
  store i32 0, ptr %15, align 4
  call void @llvm.lifetime.start.p0(i64 8, ptr %16) #13
  %17 = load ptr, ptr %10, align 8
  %18 = load ptr, ptr %8, align 8
  %19 = load i32, ptr %15, align 4
  call void @proto_tree_add_bitmask_list_ret_uint64(ptr noundef %17, ptr noundef %18, i32 noundef %19, i32 noundef 1, ptr noundef @dissect_pfcp_mpquic_address_information.pfcp_mpquic_address_information_flags, i32 noundef 0, ptr noundef %16)
  %20 = load i32, ptr %15, align 4
  %21 = add i32 %20, 1
  store i32 %21, ptr %15, align 4
  %22 = load ptr, ptr %10, align 8
  %23 = load i32, ptr @hf_pfcp_mpquic_address_information_type, align 4
  %24 = load ptr, ptr %8, align 8
  %25 = load i32, ptr %15, align 4
  %26 = call ptr @proto_tree_add_item(ptr noundef %22, i32 noundef %23, ptr noundef %24, i32 noundef %25, i32 noundef 1, i32 noundef 0)
  %27 = load i32, ptr %15, align 4
  %28 = add i32 %27, 1
  store i32 %28, ptr %15, align 4
  %29 = load ptr, ptr %10, align 8
  %30 = load i32, ptr @hf_pfcp_mpquic_address_information_port, align 4
  %31 = load ptr, ptr %8, align 8
  %32 = load i32, ptr %15, align 4
  %33 = call ptr @proto_tree_add_item(ptr noundef %29, i32 noundef %30, ptr noundef %31, i32 noundef %32, i32 noundef 2, i32 noundef 0)
  %34 = load i32, ptr %15, align 4
  %35 = add i32 %34, 2
  store i32 %35, ptr %15, align 4
  %36 = load i64, ptr %16, align 8
  %37 = and i64 %36, 1
  %38 = icmp ne i64 %37, 0
  br i1 %38, label %39, label %47

39:                                               ; preds = %7
  %40 = load ptr, ptr %10, align 8
  %41 = load i32, ptr @hf_pfcp_mpquic_address_information_address_ipv4, align 4
  %42 = load ptr, ptr %8, align 8
  %43 = load i32, ptr %15, align 4
  %44 = call ptr @proto_tree_add_item(ptr noundef %40, i32 noundef %41, ptr noundef %42, i32 noundef %43, i32 noundef 4, i32 noundef 0)
  %45 = load i32, ptr %15, align 4
  %46 = add i32 %45, 4
  store i32 %46, ptr %15, align 4
  br label %47

47:                                               ; preds = %39, %7
  %48 = load i64, ptr %16, align 8
  %49 = and i64 %48, 2
  %50 = icmp ne i64 %49, 0
  br i1 %50, label %51, label %59

51:                                               ; preds = %47
  %52 = load ptr, ptr %10, align 8
  %53 = load i32, ptr @hf_pfcp_mpquic_address_information_address_ipv6, align 4
  %54 = load ptr, ptr %8, align 8
  %55 = load i32, ptr %15, align 4
  %56 = call ptr @proto_tree_add_item(ptr noundef %52, i32 noundef %53, ptr noundef %54, i32 noundef %55, i32 noundef 16, i32 noundef 0)
  %57 = load i32, ptr %15, align 4
  %58 = add i32 %57, 16
  store i32 %58, ptr %15, align 4
  br label %59

59:                                               ; preds = %51, %47
  %60 = load i32, ptr %15, align 4
  %61 = load i16, ptr %12, align 2
  %62 = zext i16 %61 to i32
  %63 = icmp slt i32 %60, %62
  br i1 %63, label %64, label %70

64:                                               ; preds = %59
  %65 = load ptr, ptr %10, align 8
  %66 = load ptr, ptr %9, align 8
  %67 = load ptr, ptr %8, align 8
  %68 = load i32, ptr %15, align 4
  %69 = call ptr @proto_tree_add_expert(ptr noundef %65, ptr noundef %66, ptr noundef @ei_pfcp_ie_data_not_decoded, ptr noundef %67, i32 noundef %68, i32 noundef -1)
  br label %70

70:                                               ; preds = %64, %59
  call void @llvm.lifetime.end.p0(i64 8, ptr %16) #13
  call void @llvm.lifetime.end.p0(i64 4, ptr %15) #13
  ret void
}