; Function Attrs: null_pointer_is_valid sspstrong uwtable
define internal void @dissect_pfcp_mpquic_address_information(ptr noundef %0, ptr noundef %1, ptr noundef %2, ptr readnone captures(none) %3, i16 noundef zeroext %4, i8 zeroext %5, ptr readnone captures(none) %6) #0 {
  %8 = alloca i64, align 8
  call void @llvm.lifetime.start.p0(i64 8, ptr nonnull %8) #15
  call void @proto_tree_add_bitmask_list_ret_uint64(ptr noundef %2, ptr noundef %0, i32 noundef 0, i32 noundef 1, ptr noundef nonnull @dissect_pfcp_mpquic_address_information.pfcp_mpquic_address_information_flags, i32 noundef 0, ptr noundef nonnull %8)
  %9 = load i32, ptr @hf_pfcp_mpquic_address_information_type, align 4
  %10 = call ptr @proto_tree_add_item(ptr noundef %2, i32 noundef %9, ptr noundef %0, i32 noundef 1, i32 noundef 1, i32 noundef 0)
  %11 = load i32, ptr @hf_pfcp_mpquic_address_information_port, align 4
  %12 = call ptr @proto_tree_add_item(ptr noundef %2, i32 noundef %11, ptr noundef %0, i32 noundef 2, i32 noundef 2, i32 noundef 0)
  %13 = load i64, ptr %8, align 8
  %14 = and i64 %13, 1
  %.not = icmp eq i64 %14, 0
  br i1 %.not, label %18, label %15

15:                                               ; preds = %7
  %16 = load i32, ptr @hf_pfcp_mpquic_address_information_address_ipv4, align 4
  %17 = call ptr @proto_tree_add_item(ptr noundef %2, i32 noundef %16, ptr noundef %0, i32 noundef 4, i32 noundef 4, i32 noundef 0)
  %.pre = load i64, ptr %8, align 8
  br label %18

18:                                               ; preds = %15, %7
  %19 = phi i64 [ %.pre, %15 ], [ %13, %7 ]
  %.0 = phi i32 [ 8, %15 ], [ 4, %7 ]
  %20 = and i64 %19, 2
  %.not25 = icmp eq i64 %20, 0
  br i1 %.not25, label %25, label %21

21:                                               ; preds = %18
  %22 = load i32, ptr @hf_pfcp_mpquic_address_information_address_ipv6, align 4
  %23 = call ptr @proto_tree_add_item(ptr noundef %2, i32 noundef %22, ptr noundef %0, i32 noundef %.0, i32 noundef 16, i32 noundef 0)
  %24 = or disjoint i32 %.0, 16
  br label %25

25:                                               ; preds = %21, %18
  %.1 = phi i32 [ %24, %21 ], [ %.0, %18 ]
  %26 = zext i16 %4 to i32
  %27 = icmp samesign ult i32 %.1, %26
  br i1 %27, label %28, label %30

28:                                               ; preds = %25
  %29 = call ptr @proto_tree_add_expert(ptr noundef %2, ptr noundef %1, ptr noundef nonnull @ei_pfcp_ie_data_not_decoded, ptr noundef %0, i32 noundef %.1, i32 noundef -1)
  br label %30

30:                                               ; preds = %28, %25
  call void @llvm.lifetime.end.p0(i64 8, ptr nonnull %8) #15
  ret void
}